; Function Attrs: mustprogress uwtable
define void @_ZN3gmx6UpdateC2ERK10t_inputrecRK14gmx_ekindata_tPNS_14BoxDeformationE(ptr nocapture noundef nonnull writeonly align 8 dereferenceable(8) %0, ptr noundef nonnull align 8 dereferenceable(856) %1, ptr noundef nonnull align 8 dereferenceable(212) %2, ptr noundef %3) unnamed_addr #0 align 2 personality ptr @__gxx_personality_v0 {
  %5 = tail call noalias noundef nonnull dereferenceable(232) ptr @_Znwm(i64 noundef 232) #25
  invoke void @_ZN3gmx6Update4ImplC1ERK10t_inputrecRK14gmx_ekindata_tPNS_14BoxDeformationE(ptr noundef nonnull align 8 dereferenceable(232) %5, ptr noundef nonnull align 8 dereferenceable(856) %1, ptr noundef nonnull align 8 dereferenceable(212) %2, ptr noundef %3)
          to label %6 unwind label %7

6:                                                ; preds = %4
  store ptr %5, ptr %0, align 8
  ret void

7:                                                ; preds = %4
  %8 = landingpad { ptr, i32 }
          cleanup
  tail call void @_ZdlPv(ptr noundef nonnull %5) #26
  resume { ptr, i32 } %8
}